target datalayout = "e-m:e-p270:32:32-p271:32:32-p272:64:64-i64:64-i128:128-f80:128-n8:16:32:64-S128"
target triple = "x86_64-pc-linux-gnu"

%struct.H5FL_reg_head_t = type { i8, i32, i32, ptr, i64, ptr }
%struct.H5O_stab_t = type { i64, i64 }
%struct.H5G_copy_file_ud_t = type { %struct.H5O_copy_file_ud_common_t, i32, %union.H5G_cache_t }
%struct.H5O_copy_file_ud_common_t = type { ptr }
%union.H5G_cache_t = type { %struct.anon }
%struct.anon = type { i64, i64 }

@H5_H5O_stab_t_reg_free_list = internal global %struct.H5FL_reg_head_t { i8 0, i32 0, i32 0, ptr @.str.4, i64 16, ptr null }, align 8
@.str.1 = private unnamed_addr constant [101 x i8] c"generated/home/dtcxzyw/WorkSpace/Projects/compilers/llvm-opt-benchmark/bench/hdf5/hdf5/src/H5Ostab.c\00", align 1
@H5E_RESOURCE_g = external global i64, align 8
@H5E_NOSPACE_g = external global i64, align 8
@.str.2 = private unnamed_addr constant [25 x i8] c"memory allocation failed\00", align 1
@__func__.H5O__stab_copy_file = private unnamed_addr constant [20 x i8] c"H5O__stab_copy_file\00", align 1
@H5E_SYM_g = external global i64, align 8
@H5E_CANTGETSIZE_g = external global i64, align 8
@.str.6 = private unnamed_addr constant [28 x i8] c"can't query local heap size\00", align 1
@H5E_CANTINIT_g = external global i64, align 8
@.str.7 = private unnamed_addr constant [37 x i8] c"can't create symbol table components\00", align 1

; Function Attrs: nounwind uwtable
define internal ptr @H5O__stab_copy_file(ptr noundef %0, ptr noundef %1, ptr noundef %2, ptr noundef %3, ptr noundef %4, ptr noundef %5, ptr noundef %6) #0 {
  %8 = alloca ptr, align 8
  %9 = alloca ptr, align 8
  %10 = alloca ptr, align 8
  %11 = alloca ptr, align 8
  %12 = alloca ptr, align 8
  %13 = alloca ptr, align 8
  %14 = alloca ptr, align 8
  %15 = alloca ptr, align 8
  %16 = alloca ptr, align 8
  %17 = alloca ptr, align 8
  %18 = alloca i64, align 8
  %19 = alloca ptr, align 8
  %20 = alloca i8, align 1
  %21 = alloca i64, align 8
  store ptr %0, ptr %8, align 8
  store ptr %1, ptr %9, align 8
  store ptr %2, ptr %10, align 8
  store ptr %3, ptr %11, align 8
  store ptr %4, ptr %12, align 8
  store ptr %5, ptr %13, align 8
  store ptr %6, ptr %14, align 8
  %22 = load ptr, ptr %9, align 8
  store ptr %22, ptr %15, align 8
  store ptr null, ptr %16, align 8
  %23 = load ptr, ptr %14, align 8
  store ptr %23, ptr %17, align 8
  store ptr null, ptr %19, align 8
  store i8 0, ptr %20, align 1
  %24 = call noalias ptr @H5FL_reg_malloc(ptr noundef @H5_H5O_stab_t_reg_free_list)
  store ptr %24, ptr %16, align 8
  %25 = icmp eq ptr null, %24
  br i1 %25, label %26, label %41

26:                                               ; preds = %7
  br label %27

27:                                               ; preds = %26
  br label %28

28:                                               ; preds = %27
  br label %29

29:                                               ; preds = %28
  %30 = load i64, ptr @H5E_RESOURCE_g, align 8
  %31 = load i64, ptr @H5E_NOSPACE_g, align 8
  %32 = call i32 (ptr, ptr, i32, i64, i64, ptr, ...) @H5E_printf_stack(ptr noundef @.str.1, ptr noundef @__func__.H5O__stab_copy_file, i32 noundef 286, i64 noundef %30, i64 noundef %31, ptr noundef @.str.2)
  br label %33

33:                                               ; preds = %29
  store i8 1, ptr %20, align 1
  %34 = load i8, ptr %20, align 1
  %35 = trunc i8 %34 to i1
  %36 = zext i1 %35 to i8
  store i8 %36, ptr %20, align 1
  br label %37

37:                                               ; preds = %33
  br label %38

38:                                               ; preds = %37
  store ptr null, ptr %19, align 8
  br label %102

39:                                               ; No predecessors!
  br label %40

40:                                               ; preds = %39
  br label %41

41:                                               ; preds = %40, %7
  %42 = load ptr, ptr %8, align 8
  %43 = load ptr, ptr %15, align 8
  %44 = getelementptr inbounds %struct.H5O_stab_t, ptr %43, i32 0, i32 1
  %45 = load i64, ptr %44, align 8
  %46 = call i32 @H5HL_get_size(ptr noundef %42, i64 noundef %45, ptr noundef %18)
  %47 = icmp slt i32 %46, 0
  br i1 %47, label %48, label %63

48:                                               ; preds = %41
  br label %49

49:                                               ; preds = %48
  br label %50

50:                                               ; preds = %49
  br label %51

51:                                               ; preds = %50
  %52 = load i64, ptr @H5E_SYM_g, align 8
  %53 = load i64, ptr @H5E_CANTGETSIZE_g, align 8
  %54 = call i32 (ptr, ptr, i32, i64, i64, ptr, ...) @H5E_printf_stack(ptr noundef @.str.1, ptr noundef @__func__.H5O__stab_copy_file, i32 noundef 290, i64 noundef %52, i64 noundef %53, ptr noundef @.str.6)
  br label %55

55:                                               ; preds = %51
  store i8 1, ptr %20, align 1
  %56 = load i8, ptr %20, align 1
  %57 = trunc i8 %56 to i1
  %58 = zext i1 %57 to i8
  store i8 %58, ptr %20, align 1
  br label %59

59:                                               ; preds = %55
  br label %60

60:                                               ; preds = %59
  store ptr null, ptr %19, align 8
  br label %102

61:                                               ; No predecessors!
  br label %62

62:                                               ; preds = %61
  br label %63

63:                                               ; preds = %62, %41
  store i64 -1, ptr %21, align 8
  call void @H5AC_tag(i64 noundef 2, ptr noundef %21)
  %64 = load ptr, ptr %10, align 8
  %65 = load ptr, ptr %16, align 8
  %66 = load i64, ptr %18, align 8
  %67 = call i32 @H5G__stab_create_components(ptr noundef %64, ptr noundef %65, i64 noundef %66)
  %68 = icmp slt i32 %67, 0
  br i1 %68, label %69, label %85

69:                                               ; preds = %63
  br label %70

70:                                               ; preds = %69
  %71 = load i64, ptr %21, align 8
  call void @H5AC_tag(i64 noundef %71, ptr noundef null)
  br label %72

72:                                               ; preds = %70
  br label %73

73:                                               ; preds = %72
  %74 = load i64, ptr @H5E_SYM_g, align 8
  %75 = load i64, ptr @H5E_CANTINIT_g, align 8
  %76 = call i32 (ptr, ptr, i32, i64, i64, ptr, ...) @H5E_printf_stack(ptr noundef @.str.1, ptr noundef @__func__.H5O__stab_copy_file, i32 noundef 297, i64 noundef %74, i64 noundef %75, ptr noundef @.str.7)
  br label %77

77:                                               ; preds = %73
  store i8 1, ptr %20, align 1
  %78 = load i8, ptr %20, align 1
  %79 = trunc i8 %78 to i1
  %80 = zext i1 %79 to i8
  store i8 %80, ptr %20, align 1
  br label %81

81:                                               ; preds = %77
  br label %82

82:                                               ; preds = %81
  store ptr null, ptr %19, align 8
  br label %102

83:                                               ; No predecessors!
  br label %84

84:                                               ; preds = %83
  br label %85

85:                                               ; preds = %84, %63
  %86 = load i64, ptr %21, align 8
  call void @H5AC_tag(i64 noundef %86, ptr noundef null)
  %87 = load ptr, ptr %17, align 8
  %88 = getelementptr inbounds %struct.H5G_copy_file_ud_t, ptr %87, i32 0, i32 1
  store i32 1, ptr %88, align 8
  %89 = load ptr, ptr %16, align 8
  %90 = getelementptr inbounds %struct.H5O_stab_t, ptr %89, i32 0, i32 0
  %91 = load i64, ptr %90, align 8
  %92 = load ptr, ptr %17, align 8
  %93 = getelementptr inbounds %struct.H5G_copy_file_ud_t, ptr %92, i32 0, i32 2
  %94 = getelementptr inbounds %struct.anon, ptr %93, i32 0, i32 0
  store i64 %91, ptr %94, align 8
  %95 = load ptr, ptr %16, align 8
  %96 = getelementptr inbounds %struct.H5O_stab_t, ptr %95, i32 0, i32 1
  %97 = load i64, ptr %96, align 8
  %98 = load ptr, ptr %17, align 8
  %99 = getelementptr inbounds %struct.H5G_copy_file_ud_t, ptr %98, i32 0, i32 2
  %100 = getelementptr inbounds %struct.anon, ptr %99, i32 0, i32 1
  store i64 %97, ptr %100, align 8
  %101 = load ptr, ptr %16, align 8
  store ptr %101, ptr %19, align 8
  br label %102

102:                                              ; preds = %85, %82, %60, %38
  %103 = load ptr, ptr %19, align 8
  %104 = icmp ne ptr %103, null
  br i1 %104, label %112, label %105

105:                                              ; preds = %102
  %106 = load ptr, ptr %16, align 8
  %107 = icmp ne ptr %106, null
  br i1 %107, label %108, label %111

108:                                              ; preds = %105
  %109 = load ptr, ptr %16, align 8
  %110 = call ptr @H5FL_reg_free(ptr noundef @H5_H5O_stab_t_reg_free_list, ptr noundef %109)
  store ptr %110, ptr %16, align 8
  br label %111

111:                                              ; preds = %108, %105
  br label %112

112:                                              ; preds = %111, %102
  %113 = load ptr, ptr %19, align 8
  ret ptr %113
}