; Function Attrs: nounwind uwtable
define internal ptr @H5O__stab_copy_file(ptr noundef %0, ptr nocapture noundef readonly %1, ptr noundef %2, ptr nocapture readnone %3, ptr nocapture readnone %4, ptr nocapture readnone %5, ptr nocapture noundef writeonly %6) #0 {
  %8 = alloca i64, align 8
  %9 = alloca i64, align 8
  %10 = tail call noalias ptr @H5FL_reg_malloc(ptr noundef nonnull @H5_H5O_stab_t_reg_free_list) #5
  %11 = icmp eq ptr %10, null
  br i1 %11, label %12, label %16

12:                                               ; preds = %7
  %13 = load i64, ptr @H5E_RESOURCE_g, align 8
  %14 = load i64, ptr @H5E_NOSPACE_g, align 8
  %15 = tail call i32 (ptr, ptr, i32, i64, i64, ptr, ...) @H5E_printf_stack(ptr noundef nonnull @.str.1, ptr noundef nonnull @__func__.H5O__stab_copy_file, i32 noundef 286, i64 noundef %13, i64 noundef %14, ptr noundef nonnull @.str.2) #5
  br label %.thread

16:                                               ; preds = %7
  %17 = getelementptr inbounds i8, ptr %1, i64 8
  %18 = load i64, ptr %17, align 8
  %19 = call i32 @H5HL_get_size(ptr noundef %0, i64 noundef %18, ptr noundef nonnull %8) #5
  %20 = icmp slt i32 %19, 0
  br i1 %20, label %21, label %25

21:                                               ; preds = %16
  %22 = load i64, ptr @H5E_SYM_g, align 8
  %23 = load i64, ptr @H5E_CANTGETSIZE_g, align 8
  %24 = call i32 (ptr, ptr, i32, i64, i64, ptr, ...) @H5E_printf_stack(ptr noundef nonnull @.str.1, ptr noundef nonnull @__func__.H5O__stab_copy_file, i32 noundef 290, i64 noundef %22, i64 noundef %23, ptr noundef nonnull @.str.6) #5
  br label %38

25:                                               ; preds = %16
  store i64 -1, ptr %9, align 8
  call void @H5AC_tag(i64 noundef 2, ptr noundef nonnull %9) #5
  %26 = load i64, ptr %8, align 8
  %27 = call i32 @H5G__stab_create_components(ptr noundef %2, ptr noundef nonnull %10, i64 noundef %26) #5
  %28 = icmp slt i32 %27, 0
  %29 = load i64, ptr %9, align 8
  call void @H5AC_tag(i64 noundef %29, ptr noundef null) #5
  br i1 %28, label %30, label %34

30:                                               ; preds = %25
  %31 = load i64, ptr @H5E_SYM_g, align 8
  %32 = load i64, ptr @H5E_CANTINIT_g, align 8
  %33 = call i32 (ptr, ptr, i32, i64, i64, ptr, ...) @H5E_printf_stack(ptr noundef nonnull @.str.1, ptr noundef nonnull @__func__.H5O__stab_copy_file, i32 noundef 297, i64 noundef %31, i64 noundef %32, ptr noundef nonnull @.str.7) #5
  br label %38

34:                                               ; preds = %25
  %35 = getelementptr inbounds i8, ptr %6, i64 8
  store i32 1, ptr %35, align 8
  %36 = getelementptr inbounds i8, ptr %6, i64 16
  %37 = load <2 x i64>, ptr %10, align 8
  store <2 x i64> %37, ptr %36, align 8
  br label %.thread

38:                                               ; preds = %21, %30
  %39 = call ptr @H5FL_reg_free(ptr noundef nonnull @H5_H5O_stab_t_reg_free_list, ptr noundef nonnull %10) #5
  br label %.thread

.thread:                                          ; preds = %12, %34, %38
  %.022 = phi ptr [ null, %38 ], [ %10, %34 ], [ null, %12 ]
  ret ptr %.022
}